target datalayout = "e-m:e-p270:32:32-p271:32:32-p272:64:64-i64:64-i128:128-f80:128-n8:16:32:64-S128"
target triple = "x86_64-unknown-linux-gnu"

%"class.google::protobuf::UnknownFieldSet" = type { %"class.std::vector" }
%"class.std::vector" = type { %"struct.std::_Vector_base" }
%"struct.std::_Vector_base" = type { %"struct.std::_Vector_base<google::protobuf::UnknownField, std::allocator<google::protobuf::UnknownField>>::_Vector_impl" }
%"struct.std::_Vector_base<google::protobuf::UnknownField, std::allocator<google::protobuf::UnknownField>>::_Vector_impl" = type { %"struct.std::_Vector_base<google::protobuf::UnknownField, std::allocator<google::protobuf::UnknownField>>::_Vector_impl_data" }
%"struct.std::_Vector_base<google::protobuf::UnknownField, std::allocator<google::protobuf::UnknownField>>::_Vector_impl_data" = type { ptr, ptr, ptr }
%"class.google::protobuf::io::EpsCopyOutputStream" = type <{ ptr, ptr, [32 x i8], ptr, i8, i8, i8, i8, [4 x i8] }>
%"class.google::protobuf::UnknownField" = type { i32, i32, %union.anon }
%union.anon = type { i64 }

; Function Attrs: mustprogress nounwind uwtable
define linkonce_odr hidden noundef nonnull align 8 dereferenceable(16) ptr @_ZNKSt6vectorIN6google8protobuf12UnknownFieldESaIS2_EEixEm(ptr noundef nonnull align 8 dereferenceable(24) %this, i64 noundef %__n) #5 comdat align 2 {
entry:
  %this.addr = alloca ptr, align 8
  %__n.addr = alloca i64, align 8
  store ptr %this, ptr %this.addr, align 8
  store i64 %__n, ptr %__n.addr, align 8
  %this1 = load ptr, ptr %this.addr, align 8
  %_M_impl = getelementptr inbounds %"struct.std::_Vector_base", ptr %this1, i32 0, i32 0
  %_M_start = getelementptr inbounds %"struct.std::_Vector_base<google::protobuf::UnknownField, std::allocator<google::protobuf::UnknownField>>::_Vector_impl_data", ptr %_M_impl, i32 0, i32 0
  %0 = load ptr, ptr %_M_start, align 8
  %1 = load i64, ptr %__n.addr, align 8
  %add.ptr = getelementptr inbounds %"class.google::protobuf::UnknownField", ptr %0, i64 %1
  ret ptr %add.ptr
}

; Function Attrs: mustprogress nounwind uwtable
define linkonce_odr hidden noundef i64 @_ZNKSt6vectorIN6google8protobuf12UnknownFieldESaIS2_EE4sizeEv(ptr noundef nonnull align 8 dereferenceable(24) %this) #5 comdat align 2 {
entry:
  %this.addr = alloca ptr, align 8
  store ptr %this, ptr %this.addr, align 8
  %this1 = load ptr, ptr %this.addr, align 8
  %_M_impl = getelementptr inbounds %"struct.std::_Vector_base", ptr %this1, i32 0, i32 0
  %_M_finish = getelementptr inbounds %"struct.std::_Vector_base<google::protobuf::UnknownField, std::allocator<google::protobuf::UnknownField>>::_Vector_impl_data", ptr %_M_impl, i32 0, i32 1
  %0 = load ptr, ptr %_M_finish, align 8
  %_M_impl2 = getelementptr inbounds %"struct.std::_Vector_base", ptr %this1, i32 0, i32 0
  %_M_start = getelementptr inbounds %"struct.std::_Vector_base<google::protobuf::UnknownField, std::allocator<google::protobuf::UnknownField>>::_Vector_impl_data", ptr %_M_impl2, i32 0, i32 0
  %1 = load ptr, ptr %_M_start, align 8
  %sub.ptr.lhs.cast = ptrtoint ptr %0 to i64
  %sub.ptr.rhs.cast = ptrtoint ptr %1 to i64
  %sub.ptr.sub = sub i64 %sub.ptr.lhs.cast, %sub.ptr.rhs.cast
  %sub.ptr.div = sdiv exact i64 %sub.ptr.sub, 16
  ret i64 %sub.ptr.div
}

; Function Attrs: mustprogress nounwind uwtable
define linkonce_odr hidden noundef i32 @_ZNK6google8protobuf12UnknownField6numberEv(ptr noundef nonnull align 8 dereferenceable(16) %this) #5 comdat align 2 {
entry:
  %this.addr = alloca ptr, align 8
  store ptr %this, ptr %this.addr, align 8
  %this1 = load ptr, ptr %this.addr, align 8
  %number_ = getelementptr inbounds %"class.google::protobuf::UnknownField", ptr %this1, i32 0, i32 0
  %0 = load i32, ptr %number_, align 8
  ret i32 %0
}

; Function Attrs: mustprogress uwtable
define linkonce_odr hidden noundef ptr @_ZN6google8protobuf2io17CodedOutputStream20WriteVarint32ToArrayEjPh(i32 noundef %value, ptr noundef %target) #4 comdat align 2 {
entry:
  %value.addr.i = alloca i32, align 4
  %ptr.addr.i = alloca ptr, align 8
  %value.addr = alloca i32, align 4
  %target.addr = alloca ptr, align 8
  store i32 %value, ptr %value.addr, align 4
  store ptr %target, ptr %target.addr, align 8
  %0 = load i32, ptr %value.addr, align 4
  %1 = load ptr, ptr %target.addr, align 8
  store i32 %0, ptr %value.addr.i, align 4
  store ptr %1, ptr %ptr.addr.i, align 8
  br label %while.cond.i

while.cond.i:                                     ; preds = %while.body.i, %entry
  %2 = load i32, ptr %value.addr.i, align 4
  %cmp.i = icmp uge i32 %2, 128
  br i1 %cmp.i, label %while.body.i, label %_ZN6google8protobuf2io19EpsCopyOutputStream12UnsafeVarintIjEEPhT_S4_.exit

while.body.i:                                     ; preds = %while.cond.i
  %3 = load i32, ptr %value.addr.i, align 4
  %or.i = or i32 %3, 128
  %conv.i = trunc i32 %or.i to i8
  %4 = load ptr, ptr %ptr.addr.i, align 8
  store i8 %conv.i, ptr %4, align 1
  %5 = load i32, ptr %value.addr.i, align 4
  %shr.i = lshr i32 %5, 7
  store i32 %shr.i, ptr %value.addr.i, align 4
  %6 = load ptr, ptr %ptr.addr.i, align 8
  %incdec.ptr.i = getelementptr inbounds i8, ptr %6, i32 1
  store ptr %incdec.ptr.i, ptr %ptr.addr.i, align 8
  br label %while.cond.i, !llvm.loop !7

_ZN6google8protobuf2io19EpsCopyOutputStream12UnsafeVarintIjEEPhT_S4_.exit: ; preds = %while.cond.i
  %7 = load i32, ptr %value.addr.i, align 4
  %conv1.i = trunc i32 %7 to i8
  %8 = load ptr, ptr %ptr.addr.i, align 8
  %incdec.ptr2.i = getelementptr inbounds i8, ptr %8, i32 1
  store ptr %incdec.ptr2.i, ptr %ptr.addr.i, align 8
  store i8 %conv1.i, ptr %8, align 1
  %9 = load ptr, ptr %ptr.addr.i, align 8
  ret ptr %9
}

; Function Attrs: mustprogress uwtable
define linkonce_odr hidden noundef ptr @_ZN6google8protobuf2io19EpsCopyOutputStream11EnsureSpaceEPh(ptr noundef nonnull align 8 dereferenceable(60) %this, ptr noundef %ptr) #4 comdat align 2 {
entry:
  %retval = alloca ptr, align 8
  %this.addr = alloca ptr, align 8
  %ptr.addr = alloca ptr, align 8
  store ptr %this, ptr %this.addr, align 8
  store ptr %ptr, ptr %ptr.addr, align 8
  %this1 = load ptr, ptr %this.addr, align 8
  %0 = load ptr, ptr %ptr.addr, align 8
  %end_ = getelementptr inbounds %"class.google::protobuf::io::EpsCopyOutputStream", ptr %this1, i32 0, i32 0
  %1 = load ptr, ptr %end_, align 8
  %cmp = icmp uge ptr %0, %1
  br i1 %cmp, label %if.then, label %if.end

if.then:                                          ; preds = %entry
  %2 = load ptr, ptr %ptr.addr, align 8
  %call = call noundef ptr @_ZN6google8protobuf2io19EpsCopyOutputStream19EnsureSpaceFallbackEPh(ptr noundef nonnull align 8 dereferenceable(60) %this1, ptr noundef %2)
  store ptr %call, ptr %retval, align 8
  br label %return

if.end:                                           ; preds = %entry
  %3 = load ptr, ptr %ptr.addr, align 8
  store ptr %3, ptr %retval, align 8
  br label %return

return:                                           ; preds = %if.end, %if.then
  %4 = load ptr, ptr %retval, align 8
  ret ptr %4
}

; Function Attrs: mustprogress nounwind uwtable
define linkonce_odr hidden noundef i32 @_ZNK6google8protobuf12UnknownField4typeEv(ptr noundef nonnull align 8 dereferenceable(16) %this) #5 comdat align 2 {
entry:
  %this.addr = alloca ptr, align 8
  store ptr %this, ptr %this.addr, align 8
  %this1 = load ptr, ptr %this.addr, align 8
  %type_ = getelementptr inbounds %"class.google::protobuf::UnknownField", ptr %this1, i32 0, i32 1
  %0 = load i32, ptr %type_, align 4
  ret i32 %0
}

; Function Attrs: mustprogress nounwind uwtable
define linkonce_odr hidden noundef nonnull align 8 dereferenceable(16) ptr @_ZNK6google8protobuf15UnknownFieldSet5fieldEi(ptr noundef nonnull align 8 dereferenceable(24) %this, i32 noundef %index) #5 comdat align 2 {
entry:
  %this.addr = alloca ptr, align 8
  %index.addr = alloca i32, align 4
  store ptr %this, ptr %this.addr, align 8
  store i32 %index, ptr %index.addr, align 4
  %this1 = load ptr, ptr %this.addr, align 8
  %fields_ = getelementptr inbounds %"class.google::protobuf::UnknownFieldSet", ptr %this1, i32 0, i32 0
  %0 = load i32, ptr %index.addr, align 4
  %conv = sext i32 %0 to i64
  %call = call noundef nonnull align 8 dereferenceable(16) ptr @_ZNKSt6vectorIN6google8protobuf12UnknownFieldESaIS2_EEixEm(ptr noundef nonnull align 8 dereferenceable(24) %fields_, i64 noundef %conv) #3
  ret ptr %call
}

; Function Attrs: mustprogress nounwind uwtable
define linkonce_odr hidden noundef i32 @_ZNK6google8protobuf15UnknownFieldSet11field_countEv(ptr noundef nonnull align 8 dereferenceable(24) %this) #5 comdat align 2 {
entry:
  %this.addr = alloca ptr, align 8
  store ptr %this, ptr %this.addr, align 8
  %this1 = load ptr, ptr %this.addr, align 8
  %fields_ = getelementptr inbounds %"class.google::protobuf::UnknownFieldSet", ptr %this1, i32 0, i32 0
  %call = call noundef i64 @_ZNKSt6vectorIN6google8protobuf12UnknownFieldESaIS2_EE4sizeEv(ptr noundef nonnull align 8 dereferenceable(24) %fields_) #3
  %conv = trunc i64 %call to i32
  ret i32 %conv
}

; Function Attrs: mustprogress uwtable
define noundef ptr @_ZN6google8protobuf8internal10WireFormat46InternalSerializeUnknownMessageSetItemsToArrayERKNS0_15UnknownFieldSetEPhPNS0_2io19EpsCopyOutputStreamE(ptr noundef nonnull align 8 dereferenceable(24) %unknown_fields, ptr noundef %target, ptr noundef %stream) #4 align 2 {
entry:
  %value.addr.i19 = alloca i32, align 4
  %target.addr.i20 = alloca ptr, align 8
  %value.addr.i16 = alloca i32, align 4
  %target.addr.i17 = alloca ptr, align 8
  %value.addr.i13 = alloca i32, align 4
  %target.addr.i14 = alloca ptr, align 8
  %value.addr.i = alloca i32, align 4
  %target.addr.i = alloca ptr, align 8
  %unknown_fields.addr = alloca ptr, align 8
  %target.addr = alloca ptr, align 8
  %stream.addr = alloca ptr, align 8
  %i = alloca i32, align 4
  %field = alloca ptr, align 8
  store ptr %unknown_fields, ptr %unknown_fields.addr, align 8
  store ptr %target, ptr %target.addr, align 8
  store ptr %stream, ptr %stream.addr, align 8
  store i32 0, ptr %i, align 4
  br label %for.cond

for.cond:                                         ; preds = %for.inc, %entry
  %0 = load i32, ptr %i, align 4
  %1 = load ptr, ptr %unknown_fields.addr, align 8
  %call = call noundef i32 @_ZNK6google8protobuf15UnknownFieldSet11field_countEv(ptr noundef nonnull align 8 dereferenceable(24) %1)
  %cmp = icmp slt i32 %0, %call
  br i1 %cmp, label %for.body, label %for.end

for.body:                                         ; preds = %for.cond
  %2 = load ptr, ptr %unknown_fields.addr, align 8
  %3 = load i32, ptr %i, align 4
  %call1 = call noundef nonnull align 8 dereferenceable(16) ptr @_ZNK6google8protobuf15UnknownFieldSet5fieldEi(ptr noundef nonnull align 8 dereferenceable(24) %2, i32 noundef %3)
  store ptr %call1, ptr %field, align 8
  %4 = load ptr, ptr %field, align 8
  %call2 = call noundef i32 @_ZNK6google8protobuf12UnknownField4typeEv(ptr noundef nonnull align 8 dereferenceable(16) %4)
  %cmp3 = icmp eq i32 %call2, 3
  br i1 %cmp3, label %if.then, label %if.end

if.then:                                          ; preds = %for.body
  %5 = load ptr, ptr %stream.addr, align 8
  %6 = load ptr, ptr %target.addr, align 8
  %call4 = call noundef ptr @_ZN6google8protobuf2io19EpsCopyOutputStream11EnsureSpaceEPh(ptr noundef nonnull align 8 dereferenceable(60) %5, ptr noundef %6)
  store ptr %call4, ptr %target.addr, align 8
  %7 = load ptr, ptr %target.addr, align 8
  store i32 11, ptr %value.addr.i19, align 4
  store ptr %7, ptr %target.addr.i20, align 8
  %8 = load i32, ptr %value.addr.i19, align 4
  %9 = load ptr, ptr %target.addr.i20, align 8
  %call.i21 = call noundef ptr @_ZN6google8protobuf2io17CodedOutputStream20WriteVarint32ToArrayEjPh(i32 noundef %8, ptr noundef %9)
  store ptr %call.i21, ptr %target.addr, align 8
  %10 = load ptr, ptr %target.addr, align 8
  store i32 16, ptr %value.addr.i16, align 4
  store ptr %10, ptr %target.addr.i17, align 8
  %11 = load i32, ptr %value.addr.i16, align 4
  %12 = load ptr, ptr %target.addr.i17, align 8
  %call.i18 = call noundef ptr @_ZN6google8protobuf2io17CodedOutputStream20WriteVarint32ToArrayEjPh(i32 noundef %11, ptr noundef %12)
  store ptr %call.i18, ptr %target.addr, align 8
  %13 = load ptr, ptr %field, align 8
  %call7 = call noundef i32 @_ZNK6google8protobuf12UnknownField6numberEv(ptr noundef nonnull align 8 dereferenceable(16) %13)
  %14 = load ptr, ptr %target.addr, align 8
  %call8 = call noundef ptr @_ZN6google8protobuf2io17CodedOutputStream20WriteVarint32ToArrayEjPh(i32 noundef %call7, ptr noundef %14)
  store ptr %call8, ptr %target.addr, align 8
  %15 = load ptr, ptr %target.addr, align 8
  store i32 26, ptr %value.addr.i13, align 4
  store ptr %15, ptr %target.addr.i14, align 8
  %16 = load i32, ptr %value.addr.i13, align 4
  %17 = load ptr, ptr %target.addr.i14, align 8
  %call.i15 = call noundef ptr @_ZN6google8protobuf2io17CodedOutputStream20WriteVarint32ToArrayEjPh(i32 noundef %16, ptr noundef %17)
  store ptr %call.i15, ptr %target.addr, align 8
  %18 = load ptr, ptr %field, align 8
  %19 = load ptr, ptr %target.addr, align 8
  %20 = load ptr, ptr %stream.addr, align 8
  %call10 = call noundef ptr @_ZNK6google8protobuf12UnknownField37InternalSerializeLengthDelimitedNoTagEPhPNS0_2io19EpsCopyOutputStreamE(ptr noundef nonnull align 8 dereferenceable(16) %18, ptr noundef %19, ptr noundef %20)
  store ptr %call10, ptr %target.addr, align 8
  %21 = load ptr, ptr %stream.addr, align 8
  %22 = load ptr, ptr %target.addr, align 8
  %call11 = call noundef ptr @_ZN6google8protobuf2io19EpsCopyOutputStream11EnsureSpaceEPh(ptr noundef nonnull align 8 dereferenceable(60) %21, ptr noundef %22)
  store ptr %call11, ptr %target.addr, align 8
  %23 = load ptr, ptr %target.addr, align 8
  store i32 12, ptr %value.addr.i, align 4
  store ptr %23, ptr %target.addr.i, align 8
  %24 = load i32, ptr %value.addr.i, align 4
  %25 = load ptr, ptr %target.addr.i, align 8
  %call.i = call noundef ptr @_ZN6google8protobuf2io17CodedOutputStream20WriteVarint32ToArrayEjPh(i32 noundef %24, ptr noundef %25)
  store ptr %call.i, ptr %target.addr, align 8
  br label %if.end

if.end:                                           ; preds = %if.then, %for.body
  br label %for.inc

for.inc:                                          ; preds = %if.end
  %26 = load i32, ptr %i, align 4
  %inc = add nsw i32 %26, 1
  store i32 %inc, ptr %i, align 4
  br label %for.cond, !llvm.loop !9

for.end:                                          ; preds = %for.cond
  %27 = load ptr, ptr %target.addr, align 8
  ret ptr %27
}