; Function Attrs: mustprogress uwtable
define noundef ptr @_ZN6google8protobuf8internal10WireFormat46InternalSerializeUnknownMessageSetItemsToArrayERKNS0_15UnknownFieldSetEPhPNS0_2io19EpsCopyOutputStreamE(ptr noundef nonnull readonly align 8 captures(none) dereferenceable(24) %unknown_fields, ptr noundef %target, ptr noundef %stream) local_unnamed_addr #3 align 2 {
entry:
  %_M_finish.i.i = getelementptr inbounds nuw i8, ptr %unknown_fields, i64 8
  %0 = load ptr, ptr %_M_finish.i.i, align 8
  %1 = load ptr, ptr %unknown_fields, align 8
  %sub.ptr.lhs.cast.i.i33 = ptrtoint ptr %0 to i64
  %sub.ptr.rhs.cast.i.i34 = ptrtoint ptr %1 to i64
  %sub.ptr.sub.i.i35 = sub i64 %sub.ptr.lhs.cast.i.i33, %sub.ptr.rhs.cast.i.i34
  %sub.ptr.div.i.i36 = lshr exact i64 %sub.ptr.sub.i.i35, 4
  %conv.i37 = trunc i64 %sub.ptr.div.i.i36 to i32
  %cmp38 = icmp sgt i32 %conv.i37, 0
  br i1 %cmp38, label %for.body, label %for.end

for.body:                                         ; preds = %entry, %for.inc
  %2 = phi ptr [ %9, %for.inc ], [ %1, %entry ]
  %3 = phi ptr [ %10, %for.inc ], [ %0, %entry ]
  %indvars.iv = phi i64 [ %indvars.iv.next, %for.inc ], [ 0, %entry ]
  %target.addr.040 = phi ptr [ %target.addr.1, %for.inc ], [ %target, %entry ]
  %add.ptr.i.i = getelementptr inbounds nuw %"class.google::protobuf::UnknownField", ptr %2, i64 %indvars.iv
  %type_.i = getelementptr inbounds nuw i8, ptr %add.ptr.i.i, i64 4
  %4 = load i32, ptr %type_.i, align 4
  %cmp3 = icmp eq i32 %4, 3
  br i1 %cmp3, label %if.then, label %for.inc

if.then:                                          ; preds = %for.body
  %5 = load ptr, ptr %stream, align 8
  %cmp.not.i = icmp ult ptr %target.addr.040, %5
  br i1 %cmp.not.i, label %_ZN6google8protobuf2io19EpsCopyOutputStream11EnsureSpaceEPh.exit, label %if.then.i

if.then.i:                                        ; preds = %if.then
  %call.i17 = tail call noundef ptr @_ZN6google8protobuf2io19EpsCopyOutputStream19EnsureSpaceFallbackEPh(ptr noundef nonnull align 8 dereferenceable(60) %stream, ptr noundef %target.addr.040)
  br label %_ZN6google8protobuf2io19EpsCopyOutputStream11EnsureSpaceEPh.exit

_ZN6google8protobuf2io19EpsCopyOutputStream11EnsureSpaceEPh.exit: ; preds = %if.then, %if.then.i
  %retval.0.i = phi ptr [ %call.i17, %if.then.i ], [ %target.addr.040, %if.then ]
  %incdec.ptr2.i.i = getelementptr inbounds nuw i8, ptr %retval.0.i, i64 1
  store i8 11, ptr %retval.0.i, align 1
  %incdec.ptr2.i.i18 = getelementptr inbounds nuw i8, ptr %retval.0.i, i64 2
  store i8 16, ptr %incdec.ptr2.i.i, align 1
  %6 = load i32, ptr %add.ptr.i.i, align 8
  %cmp.i7.i = icmp ugt i32 %6, 127
  br i1 %cmp.i7.i, label %while.body.i.i, label %_ZN6google8protobuf2io17CodedOutputStream20WriteVarint32ToArrayEjPh.exit

while.body.i.i:                                   ; preds = %_ZN6google8protobuf2io19EpsCopyOutputStream11EnsureSpaceEPh.exit, %while.body.i.i
  %value.addr.i.09.i = phi i32 [ %shr.i.i, %while.body.i.i ], [ %6, %_ZN6google8protobuf2io19EpsCopyOutputStream11EnsureSpaceEPh.exit ]
  %ptr.addr.i.08.i = phi ptr [ %incdec.ptr.i.i, %while.body.i.i ], [ %incdec.ptr2.i.i18, %_ZN6google8protobuf2io19EpsCopyOutputStream11EnsureSpaceEPh.exit ]
  %7 = trunc i32 %value.addr.i.09.i to i8
  %conv.i.i = or i8 %7, -128
  store i8 %conv.i.i, ptr %ptr.addr.i.08.i, align 1
  %shr.i.i = lshr i32 %value.addr.i.09.i, 7
  %incdec.ptr.i.i = getelementptr inbounds nuw i8, ptr %ptr.addr.i.08.i, i64 1
  %cmp.i.i = icmp ugt i32 %value.addr.i.09.i, 16383
  br i1 %cmp.i.i, label %while.body.i.i, label %_ZN6google8protobuf2io17CodedOutputStream20WriteVarint32ToArrayEjPh.exit, !llvm.loop !7

_ZN6google8protobuf2io17CodedOutputStream20WriteVarint32ToArrayEjPh.exit: ; preds = %while.body.i.i, %_ZN6google8protobuf2io19EpsCopyOutputStream11EnsureSpaceEPh.exit
  %ptr.addr.i.0.lcssa.i = phi ptr [ %incdec.ptr2.i.i18, %_ZN6google8protobuf2io19EpsCopyOutputStream11EnsureSpaceEPh.exit ], [ %incdec.ptr.i.i, %while.body.i.i ]
  %value.addr.i.0.lcssa.i = phi i32 [ %6, %_ZN6google8protobuf2io19EpsCopyOutputStream11EnsureSpaceEPh.exit ], [ %shr.i.i, %while.body.i.i ]
  %conv1.i.i = trunc nuw nsw i32 %value.addr.i.0.lcssa.i to i8
  %incdec.ptr2.i.i19 = getelementptr inbounds nuw i8, ptr %ptr.addr.i.0.lcssa.i, i64 1
  store i8 %conv1.i.i, ptr %ptr.addr.i.0.lcssa.i, align 1
  %incdec.ptr2.i.i23 = getelementptr inbounds nuw i8, ptr %ptr.addr.i.0.lcssa.i, i64 2
  store i8 26, ptr %incdec.ptr2.i.i19, align 1
  %call10 = tail call noundef ptr @_ZNK6google8protobuf12UnknownField37InternalSerializeLengthDelimitedNoTagEPhPNS0_2io19EpsCopyOutputStreamE(ptr noundef nonnull align 8 dereferenceable(16) %add.ptr.i.i, ptr noundef nonnull %incdec.ptr2.i.i23, ptr noundef nonnull %stream)
  %8 = load ptr, ptr %stream, align 8
  %cmp.not.i24 = icmp ult ptr %call10, %8
  br i1 %cmp.not.i24, label %_ZN6google8protobuf2io19EpsCopyOutputStream11EnsureSpaceEPh.exit28, label %if.then.i25

if.then.i25:                                      ; preds = %_ZN6google8protobuf2io17CodedOutputStream20WriteVarint32ToArrayEjPh.exit
  %call.i26 = tail call noundef ptr @_ZN6google8protobuf2io19EpsCopyOutputStream19EnsureSpaceFallbackEPh(ptr noundef nonnull align 8 dereferenceable(60) %stream, ptr noundef %call10)
  br label %_ZN6google8protobuf2io19EpsCopyOutputStream11EnsureSpaceEPh.exit28

_ZN6google8protobuf2io19EpsCopyOutputStream11EnsureSpaceEPh.exit28: ; preds = %_ZN6google8protobuf2io17CodedOutputStream20WriteVarint32ToArrayEjPh.exit, %if.then.i25
  %retval.0.i27 = phi ptr [ %call.i26, %if.then.i25 ], [ %call10, %_ZN6google8protobuf2io17CodedOutputStream20WriteVarint32ToArrayEjPh.exit ]
  %incdec.ptr2.i.i32 = getelementptr inbounds nuw i8, ptr %retval.0.i27, i64 1
  store i8 12, ptr %retval.0.i27, align 1
  %.pre = load ptr, ptr %_M_finish.i.i, align 8
  %.pre42 = load ptr, ptr %unknown_fields, align 8
  br label %for.inc

for.inc:                                          ; preds = %for.body, %_ZN6google8protobuf2io19EpsCopyOutputStream11EnsureSpaceEPh.exit28
  %9 = phi ptr [ %.pre42, %_ZN6google8protobuf2io19EpsCopyOutputStream11EnsureSpaceEPh.exit28 ], [ %2, %for.body ]
  %10 = phi ptr [ %.pre, %_ZN6google8protobuf2io19EpsCopyOutputStream11EnsureSpaceEPh.exit28 ], [ %3, %for.body ]
  %target.addr.1 = phi ptr [ %incdec.ptr2.i.i32, %_ZN6google8protobuf2io19EpsCopyOutputStream11EnsureSpaceEPh.exit28 ], [ %target.addr.040, %for.body ]
  %indvars.iv.next = add nuw nsw i64 %indvars.iv, 1
  %sub.ptr.lhs.cast.i.i = ptrtoint ptr %10 to i64
  %sub.ptr.rhs.cast.i.i = ptrtoint ptr %9 to i64
  %sub.ptr.sub.i.i = sub i64 %sub.ptr.lhs.cast.i.i, %sub.ptr.rhs.cast.i.i
  %sext = shl i64 %sub.ptr.sub.i.i, 28
  %11 = ashr i64 %sext, 32
  %cmp = icmp slt i64 %indvars.iv.next, %11
  br i1 %cmp, label %for.body, label %for.end, !llvm.loop !10

for.end:                                          ; preds = %for.inc, %entry
  %target.addr.0.lcssa = phi ptr [ %target, %entry ], [ %target.addr.1, %for.inc ]
  ret ptr %target.addr.0.lcssa
}